; Function Attrs: nounwind uwtable
define dso_local void @_ZThn8_N4node22PerIsolatePlatformData19PostNonNestableTaskESt10unique_ptrIN2v84TaskESt14default_deleteIS3_EE(ptr noundef %this, ptr nocapture noundef %task) unnamed_addr #10 align 2 {
entry:
  %agg.tmp.i = alloca %"class.std::unique_ptr.22", align 8
  %0 = getelementptr inbounds i8, ptr %this, i64 -8
  call void @llvm.lifetime.start.p0(i64 8, ptr nonnull %agg.tmp.i)
  %1 = load i64, ptr %task, align 8
  store i64 %1, ptr %agg.tmp.i, align 8
  store ptr null, ptr %task, align 8
  %vtable.i = load ptr, ptr %0, align 8
  %vfn.i = getelementptr inbounds i8, ptr %vtable.i, i64 32
  %2 = load ptr, ptr %vfn.i, align 8
  call void %2(ptr noundef nonnull align 8 dereferenceable(576) %0, ptr noundef nonnull %agg.tmp.i) #23
  %3 = load ptr, ptr %agg.tmp.i, align 8
  %cmp.not.i.i = icmp eq ptr %3, null
  br i1 %cmp.not.i.i, label %_ZN4node22PerIsolatePlatformData19PostNonNestableTaskESt10unique_ptrIN2v84TaskESt14default_deleteIS3_EE.exit, label %_ZNKSt14default_deleteIN2v84TaskEEclEPS1_.exit.i.i

_ZNKSt14default_deleteIN2v84TaskEEclEPS1_.exit.i.i: ; preds = %entry
  %vtable.i.i.i = load ptr, ptr %3, align 8
  %vfn.i.i.i = getelementptr inbounds i8, ptr %vtable.i.i.i, i64 8
  %4 = load ptr, ptr %vfn.i.i.i, align 8
  call void %4(ptr noundef nonnull align 8 dereferenceable(8) %3) #23
  br label %_ZN4node22PerIsolatePlatformData19PostNonNestableTaskESt10unique_ptrIN2v84TaskESt14default_deleteIS3_EE.exit

_ZN4node22PerIsolatePlatformData19PostNonNestableTaskESt10unique_ptrIN2v84TaskESt14default_deleteIS3_EE.exit: ; preds = %entry, %_ZNKSt14default_deleteIN2v84TaskEEclEPS1_.exit.i.i
  call void @llvm.lifetime.end.p0(i64 8, ptr nonnull %agg.tmp.i)
  ret void
}